target datalayout = "e-m:e-p270:32:32-p271:32:32-p272:64:64-i64:64-i128:128-f80:128-n8:16:32:64-S128"
target triple = "x86_64-pc-linux-gnu"

%struct.VVCFrame = type { ptr, ptr, ptr, ptr, ptr, ptr, i32, i32, i32, %struct.VVCWindow, i32, i32, ptr, ptr, i16, i8, ptr }
%struct.VVCWindow = type { i16, i16, i16, i16 }
%struct.VVCFrameContext = type { ptr, [17 x %struct.VVCFrame], ptr, ptr, %struct.VVCFrameParamSets, ptr, i32, i32, ptr, %struct.VVCDSPContext, %struct.VideoDSPContext, ptr, i64, ptr, ptr, ptr, ptr, %struct.anon }
%struct.VVCFrameParamSets = type { ptr, ptr, %struct.VVCPH, [8 x ptr], %struct.VVCLMCS, ptr }
%struct.VVCPH = type { ptr, ptr, i32, i32, i8, [3 x i16], i8, [3 x i16], %struct.PredWeightTable }
%struct.PredWeightTable = type { [2 x i8], [2 x i8], [2 x [2 x [15 x i8]]], [2 x [3 x [15 x i16]]], [2 x [3 x [15 x i16]]] }
%struct.VVCLMCS = type { i8, i8, %union.anon.0, %union.anon.0, [17 x i16], [16 x i16] }
%union.anon.0 = type { [4096 x i16] }
%struct.VVCDSPContext = type { %struct.VVCInterDSPContext, %struct.VVCIntraDSPContext, %struct.VVCItxDSPContext, %struct.VVCLMCSDSPContext, %struct.VVCLFDSPContext, %struct.VVCSAODSPContext, %struct.VVCALFDSPContext }
%struct.VVCInterDSPContext = type { [2 x [7 x [2 x [2 x ptr]]]], [2 x [7 x [2 x [2 x ptr]]]], [2 x [7 x [2 x [2 x ptr]]]], [2 x [7 x ptr]], [2 x [7 x ptr]], [2 x [7 x ptr]], ptr, ptr, ptr, ptr, ptr, ptr, ptr, ptr, ptr, ptr, ptr, [2 x [2 x ptr]] }
%struct.VVCIntraDSPContext = type { ptr, ptr, ptr, ptr, ptr, ptr, ptr, ptr, ptr, ptr }
%struct.VVCItxDSPContext = type { ptr, ptr, [3 x [6 x ptr]], ptr, ptr }
%struct.VVCLMCSDSPContext = type { ptr }
%struct.VVCLFDSPContext = type { [2 x ptr], [2 x ptr], [2 x ptr] }
%struct.VVCSAODSPContext = type { [9 x ptr], [9 x ptr], [2 x ptr] }
%struct.VVCALFDSPContext = type { [2 x ptr], ptr, ptr, ptr }
%struct.VideoDSPContext = type { ptr, ptr }
%struct.anon = type { ptr, ptr, ptr, ptr, [2 x ptr], [2 x ptr], [2 x ptr], [2 x ptr], [2 x ptr], [3 x ptr], ptr, ptr, [2 x ptr], ptr, ptr, [2 x ptr], ptr, ptr, ptr, [2 x ptr], ptr, [3 x ptr], ptr, [2 x ptr], [2 x ptr], [2 x ptr], [2 x [3 x ptr]], [2 x ptr], [2 x ptr], [3 x ptr], [3 x ptr], [3 x [2 x ptr]], [3 x [2 x ptr]], ptr, ptr, ptr, [3 x ptr], %struct.anon.1 }
%struct.anon.1 = type { i32, i32, i32, i32, i32, i32, i32, i32, i32, i32, i32, i32 }
%struct.VVCSPS = type { ptr, [3 x i8], [3 x i8], i32, i8, i32, i8, i8, i8, i16, i8, i8, i8, i8, i8, i8, i8, i8, [5 x i32], i8, i8, [3 x [111 x i8]] }
%struct.VVCContext = type { ptr, ptr, %struct.CodedBitstreamFragment, %struct.VVCParamSets, i32, i32, i32, i32, i32, i32, i32, i16, i16, ptr, ptr, i32, i64, i32 }
%struct.CodedBitstreamFragment = type { ptr, i64, i64, ptr, i32, i32, ptr }
%struct.VVCParamSets = type { [16 x ptr], [64 x ptr], [8 x ptr], [4 x ptr], [8 x ptr], i16 }
%struct.H266RefPicListStruct = type { i8, i8, [29 x i8], [29 x i8], [29 x i8], [29 x i8], [29 x i8], [29 x i8] }
%struct.H266RawNALUnitHeader = type { i8, i8, i8, i8 }
%struct.H266RawExtensionData = type { ptr, ptr, i64 }
%struct.H266RawSPS = type { %struct.H266RawNALUnitHeader, i8, i8, i8, i8, i8, i8, %struct.H266RawProfileTierLevel, i8, i8, i8, i16, i16, i8, i16, i16, i16, i16, i8, i16, i8, i8, [1000 x i16], [1000 x i16], [1000 x i16], [1000 x i16], [1000 x i8], [1000 x i8], i8, i8, i8, [1000 x i32], i8, i8, i8, i8, i8, i8, i8, [16 x i8], i8, [16 x i8], i8, %struct.H266DpbParameters, i8, i8, i8, i8, i8, i8, i8, i8, i8, i8, i8, i8, i8, i8, i8, i8, i8, i8, i8, i8, i8, i8, i8, i8, i8, [3 x i8], [3 x i8], [3 x [111 x i8]], [3 x [111 x i8]], i8, i8, i8, i8, i8, i8, i8, i8, i8, i8, [2 x i8], [2 x [64 x %struct.H266RefPicListStruct]], i8, i8, i8, i8, i8, i8, i8, i8, i8, i8, i8, i8, i8, i8, i8, i8, i8, i8, i8, i8, i8, i8, i8, i8, i8, i8, i8, i8, i8, i8, i8, i8, i8, i8, i8, i8, i8, i8, [4 x i8], [4 x i16], i8, i8, i8, i8, i8, i8, i8, i8, i8, [3 x i16], i8, [3 x i16], i8, i8, %struct.H266RawGeneralTimingHrdParameters, %struct.H266RawOlsTimingHrdParameters, i8, i8, i16, %struct.H266RawVUI, i8, i8, i8, i8, i8, i8, i8, i8, %struct.H266RawExtensionData }
%struct.H266RawProfileTierLevel = type { i8, i8, i8, i8, i8, %struct.H266GeneralConstraintsInfo, [6 x i8], [6 x i8], i8, [256 x i32], i8 }
%struct.H266GeneralConstraintsInfo = type { i8, i8, i8, i8, i8, i8, i8, i8, i8, i8, i8, i8, i8, i8, i8, i8, i8, i8, i8, i8, i8, i8, i8, i8, i8, i8, i8, i8, i8, i8, i8, i8, i8, i8, i8, i8, i8, i8, i8, i8, i8, i8, i8, i8, i8, i8, i8, i8, i8, i8, i8, i8, i8, i8, i8, i8, i8, i8, i8, i8, i8, i8, i8, i8, i8, i8, i8, i8, [255 x i8], i8, i8, i8, i8, i8, i8 }
%struct.H266DpbParameters = type { [7 x i8], [7 x i8], [7 x i8] }
%struct.H266RawGeneralTimingHrdParameters = type { i32, i32, i8, i8, i8, i8, i8, i8, i8, i8, i8 }
%struct.H266RawOlsTimingHrdParameters = type { [7 x i8], [7 x i8], [7 x i16], [7 x i8], %struct.H266RawSubLayerHRDParameters, %struct.H266RawSubLayerHRDParameters }
%struct.H266RawSubLayerHRDParameters = type { [7 x [32 x i32]], [7 x [32 x i32]], [7 x [32 x i32]], [7 x [32 x i32]], [7 x [32 x i8]] }
%struct.H266RawVUI = type { i8, i8, i8, i8, i8, i8, i8, i16, i16, i8, i8, i8, i8, i8, i8, i8, i8, i8, i8, i8, %struct.H266RawExtensionData }

; Function Attrs: nounwind uwtable
define void @ff_vvc_bump_frame(ptr noundef %0, ptr noundef %1) #0 {
  %3 = alloca ptr, align 8
  %4 = alloca ptr, align 8
  %5 = alloca ptr, align 8
  %6 = alloca i32, align 4
  %7 = alloca i32, align 4
  %8 = alloca i32, align 4
  %9 = alloca i32, align 4
  %10 = alloca ptr, align 8
  %11 = alloca i32, align 4
  %12 = alloca ptr, align 8
  %13 = alloca i32, align 4
  %14 = alloca ptr, align 8
  store ptr %0, ptr %3, align 8, !tbaa !73
  store ptr %1, ptr %4, align 8, !tbaa !4
  call void @llvm.lifetime.start.p0(i64 8, ptr %5) #7
  %15 = load ptr, ptr %4, align 8, !tbaa !4
  %16 = getelementptr inbounds nuw %struct.VVCFrameContext, ptr %15, i32 0, i32 4
  %17 = getelementptr inbounds nuw %struct.VVCFrameParamSets, ptr %16, i32 0, i32 0
  %18 = load ptr, ptr %17, align 8, !tbaa !30
  store ptr %18, ptr %5, align 8, !tbaa !123
  call void @llvm.lifetime.start.p0(i64 4, ptr %6) #7
  %19 = load ptr, ptr %4, align 8, !tbaa !4
  %20 = getelementptr inbounds nuw %struct.VVCFrameContext, ptr %19, i32 0, i32 4
  %21 = getelementptr inbounds nuw %struct.VVCFrameParamSets, ptr %20, i32 0, i32 2
  %22 = getelementptr inbounds nuw %struct.VVCPH, ptr %21, i32 0, i32 3
  %23 = load i32, ptr %22, align 4, !tbaa !172
  store i32 %23, ptr %6, align 4, !tbaa !11
  call void @llvm.lifetime.start.p0(i64 4, ptr %7) #7
  store i32 0, ptr %7, align 4, !tbaa !11
  call void @llvm.lifetime.start.p0(i64 4, ptr %8) #7
  store i32 2147483647, ptr %8, align 4, !tbaa !11
  call void @llvm.lifetime.start.p0(i64 4, ptr %9) #7
  store i32 0, ptr %9, align 4, !tbaa !11
  br label %24

24:                                               ; preds = %60, %2
  %25 = load i32, ptr %9, align 4, !tbaa !11
  %26 = sext i32 %25 to i64
  %27 = icmp ult i64 %26, 17
  br i1 %27, label %29, label %28

28:                                               ; preds = %24
  call void @llvm.lifetime.end.p0(i64 4, ptr %9) #7
  br label %63

29:                                               ; preds = %24
  call void @llvm.lifetime.start.p0(i64 8, ptr %10) #7
  %30 = load ptr, ptr %4, align 8, !tbaa !4
  %31 = getelementptr inbounds nuw %struct.VVCFrameContext, ptr %30, i32 0, i32 1
  %32 = load i32, ptr %9, align 4, !tbaa !11
  %33 = sext i32 %32 to i64
  %34 = getelementptr inbounds [17 x %struct.VVCFrame], ptr %31, i64 0, i64 %33
  store ptr %34, ptr %10, align 8, !tbaa !9
  %35 = load ptr, ptr %10, align 8, !tbaa !9
  %36 = getelementptr inbounds nuw %struct.VVCFrame, ptr %35, i32 0, i32 15
  %37 = load i8, ptr %36, align 2, !tbaa !27
  %38 = zext i8 %37 to i32
  %39 = icmp ne i32 %38, 0
  br i1 %39, label %40, label %59

40:                                               ; preds = %29
  %41 = load ptr, ptr %10, align 8, !tbaa !9
  %42 = getelementptr inbounds nuw %struct.VVCFrame, ptr %41, i32 0, i32 14
  %43 = load i16, ptr %42, align 8, !tbaa !80
  %44 = zext i16 %43 to i32
  %45 = load ptr, ptr %3, align 8, !tbaa !73
  %46 = getelementptr inbounds nuw %struct.VVCContext, ptr %45, i32 0, i32 12
  %47 = load i16, ptr %46, align 2, !tbaa !173
  %48 = zext i16 %47 to i32
  %49 = icmp eq i32 %44, %48
  br i1 %49, label %50, label %59

50:                                               ; preds = %40
  %51 = load ptr, ptr %10, align 8, !tbaa !9
  %52 = getelementptr inbounds nuw %struct.VVCFrame, ptr %51, i32 0, i32 8
  %53 = load i32, ptr %52, align 8, !tbaa !89
  %54 = load i32, ptr %6, align 4, !tbaa !11
  %55 = icmp ne i32 %53, %54
  br i1 %55, label %56, label %59

56:                                               ; preds = %50
  %57 = load i32, ptr %7, align 4, !tbaa !11
  %58 = add nsw i32 %57, 1
  store i32 %58, ptr %7, align 4, !tbaa !11
  br label %59

59:                                               ; preds = %56, %50, %40, %29
  call void @llvm.lifetime.end.p0(i64 8, ptr %10) #7
  br label %60

60:                                               ; preds = %59
  %61 = load i32, ptr %9, align 4, !tbaa !11
  %62 = add nsw i32 %61, 1
  store i32 %62, ptr %9, align 4, !tbaa !11
  br label %24, !llvm.loop !186

63:                                               ; preds = %28
  %64 = load ptr, ptr %5, align 8, !tbaa !123
  %65 = icmp ne ptr %64, null
  br i1 %65, label %66, label %186

66:                                               ; preds = %63
  %67 = load i32, ptr %7, align 4, !tbaa !11
  %68 = load ptr, ptr %5, align 8, !tbaa !123
  %69 = getelementptr inbounds nuw %struct.VVCSPS, ptr %68, i32 0, i32 0
  %70 = load ptr, ptr %69, align 8, !tbaa !176
  %71 = getelementptr inbounds nuw %struct.H266RawSPS, ptr %70, i32 0, i32 43
  %72 = getelementptr inbounds nuw %struct.H266DpbParameters, ptr %71, i32 0, i32 0
  %73 = load ptr, ptr %5, align 8, !tbaa !123
  %74 = getelementptr inbounds nuw %struct.VVCSPS, ptr %73, i32 0, i32 0
  %75 = load ptr, ptr %74, align 8, !tbaa !176
  %76 = getelementptr inbounds nuw %struct.H266RawSPS, ptr %75, i32 0, i32 3
  %77 = load i8, ptr %76, align 2, !tbaa !177
  %78 = zext i8 %77 to i64
  %79 = getelementptr inbounds nuw [7 x i8], ptr %72, i64 0, i64 %78
  %80 = load i8, ptr %79, align 1, !tbaa !108
  %81 = zext i8 %80 to i32
  %82 = add nsw i32 %81, 1
  %83 = icmp sge i32 %67, %82
  br i1 %83, label %84, label %186

84:                                               ; preds = %66
  call void @llvm.lifetime.start.p0(i64 4, ptr %11) #7
  store i32 0, ptr %11, align 4, !tbaa !11
  br label %85

85:                                               ; preds = %135, %84
  %86 = load i32, ptr %11, align 4, !tbaa !11
  %87 = sext i32 %86 to i64
  %88 = icmp ult i64 %87, 17
  br i1 %88, label %90, label %89

89:                                               ; preds = %85
  call void @llvm.lifetime.end.p0(i64 4, ptr %11) #7
  br label %138

90:                                               ; preds = %85
  call void @llvm.lifetime.start.p0(i64 8, ptr %12) #7
  %91 = load ptr, ptr %4, align 8, !tbaa !4
  %92 = getelementptr inbounds nuw %struct.VVCFrameContext, ptr %91, i32 0, i32 1
  %93 = load i32, ptr %11, align 4, !tbaa !11
  %94 = sext i32 %93 to i64
  %95 = getelementptr inbounds [17 x %struct.VVCFrame], ptr %92, i64 0, i64 %94
  store ptr %95, ptr %12, align 8, !tbaa !9
  %96 = load ptr, ptr %12, align 8, !tbaa !9
  %97 = getelementptr inbounds nuw %struct.VVCFrame, ptr %96, i32 0, i32 15
  %98 = load i8, ptr %97, align 2, !tbaa !27
  %99 = zext i8 %98 to i32
  %100 = icmp ne i32 %99, 0
  br i1 %100, label %101, label %134

101:                                              ; preds = %90
  %102 = load ptr, ptr %12, align 8, !tbaa !9
  %103 = getelementptr inbounds nuw %struct.VVCFrame, ptr %102, i32 0, i32 14
  %104 = load i16, ptr %103, align 8, !tbaa !80
  %105 = zext i16 %104 to i32
  %106 = load ptr, ptr %3, align 8, !tbaa !73
  %107 = getelementptr inbounds nuw %struct.VVCContext, ptr %106, i32 0, i32 12
  %108 = load i16, ptr %107, align 2, !tbaa !173
  %109 = zext i16 %108 to i32
  %110 = icmp eq i32 %105, %109
  br i1 %110, label %111, label %134

111:                                              ; preds = %101
  %112 = load ptr, ptr %12, align 8, !tbaa !9
  %113 = getelementptr inbounds nuw %struct.VVCFrame, ptr %112, i32 0, i32 8
  %114 = load i32, ptr %113, align 8, !tbaa !89
  %115 = load i32, ptr %6, align 4, !tbaa !11
  %116 = icmp ne i32 %114, %115
  br i1 %116, label %117, label %134

117:                                              ; preds = %111
  %118 = load ptr, ptr %12, align 8, !tbaa !9
  %119 = getelementptr inbounds nuw %struct.VVCFrame, ptr %118, i32 0, i32 15
  %120 = load i8, ptr %119, align 2, !tbaa !27
  %121 = zext i8 %120 to i32
  %122 = icmp eq i32 %121, 1
  br i1 %122, label %123, label %133

123:                                              ; preds = %117
  %124 = load ptr, ptr %12, align 8, !tbaa !9
  %125 = getelementptr inbounds nuw %struct.VVCFrame, ptr %124, i32 0, i32 8
  %126 = load i32, ptr %125, align 8, !tbaa !89
  %127 = load i32, ptr %8, align 4, !tbaa !11
  %128 = icmp slt i32 %126, %127
  br i1 %128, label %129, label %133

129:                                              ; preds = %123
  %130 = load ptr, ptr %12, align 8, !tbaa !9
  %131 = getelementptr inbounds nuw %struct.VVCFrame, ptr %130, i32 0, i32 8
  %132 = load i32, ptr %131, align 8, !tbaa !89
  store i32 %132, ptr %8, align 4, !tbaa !11
  br label %133

133:                                              ; preds = %129, %123, %117
  br label %134

134:                                              ; preds = %133, %111, %101, %90
  call void @llvm.lifetime.end.p0(i64 8, ptr %12) #7
  br label %135

135:                                              ; preds = %134
  %136 = load i32, ptr %11, align 4, !tbaa !11
  %137 = add nsw i32 %136, 1
  store i32 %137, ptr %11, align 4, !tbaa !11
  br label %85, !llvm.loop !187

138:                                              ; preds = %89
  call void @llvm.lifetime.start.p0(i64 4, ptr %13) #7
  store i32 0, ptr %13, align 4, !tbaa !11
  br label %139

139:                                              ; preds = %180, %138
  %140 = load i32, ptr %13, align 4, !tbaa !11
  %141 = sext i32 %140 to i64
  %142 = icmp ult i64 %141, 17
  br i1 %142, label %144, label %143

143:                                              ; preds = %139
  call void @llvm.lifetime.end.p0(i64 4, ptr %13) #7
  br label %183

144:                                              ; preds = %139
  call void @llvm.lifetime.start.p0(i64 8, ptr %14) #7
  %145 = load ptr, ptr %4, align 8, !tbaa !4
  %146 = getelementptr inbounds nuw %struct.VVCFrameContext, ptr %145, i32 0, i32 1
  %147 = load i32, ptr %13, align 4, !tbaa !11
  %148 = sext i32 %147 to i64
  %149 = getelementptr inbounds [17 x %struct.VVCFrame], ptr %146, i64 0, i64 %148
  store ptr %149, ptr %14, align 8, !tbaa !9
  %150 = load ptr, ptr %14, align 8, !tbaa !9
  %151 = getelementptr inbounds nuw %struct.VVCFrame, ptr %150, i32 0, i32 15
  %152 = load i8, ptr %151, align 2, !tbaa !27
  %153 = zext i8 %152 to i32
  %154 = and i32 %153, 1
  %155 = icmp ne i32 %154, 0
  br i1 %155, label %156, label %179

156:                                              ; preds = %144
  %157 = load ptr, ptr %14, align 8, !tbaa !9
  %158 = getelementptr inbounds nuw %struct.VVCFrame, ptr %157, i32 0, i32 14
  %159 = load i16, ptr %158, align 8, !tbaa !80
  %160 = zext i16 %159 to i32
  %161 = load ptr, ptr %3, align 8, !tbaa !73
  %162 = getelementptr inbounds nuw %struct.VVCContext, ptr %161, i32 0, i32 12
  %163 = load i16, ptr %162, align 2, !tbaa !173
  %164 = zext i16 %163 to i32
  %165 = icmp eq i32 %160, %164
  br i1 %165, label %166, label %179

166:                                              ; preds = %156
  %167 = load ptr, ptr %14, align 8, !tbaa !9
  %168 = getelementptr inbounds nuw %struct.VVCFrame, ptr %167, i32 0, i32 8
  %169 = load i32, ptr %168, align 8, !tbaa !89
  %170 = load i32, ptr %8, align 4, !tbaa !11
  %171 = icmp sle i32 %169, %170
  br i1 %171, label %172, label %179

172:                                              ; preds = %166
  %173 = load ptr, ptr %14, align 8, !tbaa !9
  %174 = getelementptr inbounds nuw %struct.VVCFrame, ptr %173, i32 0, i32 15
  %175 = load i8, ptr %174, align 2, !tbaa !27
  %176 = zext i8 %175 to i32
  %177 = or i32 %176, 8
  %178 = trunc i32 %177 to i8
  store i8 %178, ptr %174, align 2, !tbaa !27
  br label %179

179:                                              ; preds = %172, %166, %156, %144
  call void @llvm.lifetime.end.p0(i64 8, ptr %14) #7
  br label %180

180:                                              ; preds = %179
  %181 = load i32, ptr %13, align 4, !tbaa !11
  %182 = add nsw i32 %181, 1
  store i32 %182, ptr %13, align 4, !tbaa !11
  br label %139, !llvm.loop !188

183:                                              ; preds = %143
  %184 = load i32, ptr %7, align 4, !tbaa !11
  %185 = add nsw i32 %184, -1
  store i32 %185, ptr %7, align 4, !tbaa !11
  br label %186

186:                                              ; preds = %183, %66, %63
  call void @llvm.lifetime.end.p0(i64 4, ptr %8) #7
  call void @llvm.lifetime.end.p0(i64 4, ptr %7) #7
  call void @llvm.lifetime.end.p0(i64 4, ptr %6) #7
  call void @llvm.lifetime.end.p0(i64 8, ptr %5) #7
  ret void
}