; Function Attrs: nofree norecurse nosync nounwind memory(read, argmem: readwrite, inaccessiblemem: none) uwtable
define void @ff_vvc_bump_frame(ptr noundef readonly captures(none) %0, ptr noundef captures(none) %1) local_unnamed_addr #4 {
  %3 = getelementptr inbounds nuw i8, ptr %1, i64 1928
  %4 = load ptr, ptr %3, align 8, !tbaa !26
  %5 = getelementptr inbounds nuw i8, ptr %1, i64 1964
  %6 = load i32, ptr %5, align 4, !tbaa !156
  %7 = getelementptr inbounds nuw i8, ptr %1, i64 8
  %8 = getelementptr inbounds nuw i8, ptr %0, i64 902
  br label %10

9:                                                ; preds = %23
  %.not = icmp eq ptr %4, null
  br i1 %.not, label %.loopexit, label %24

10:                                               ; preds = %2, %23
  %indvars.iv = phi i64 [ 0, %2 ], [ %indvars.iv.next, %23 ]
  %.061 = phi i32 [ 0, %2 ], [ %.1, %23 ]
  %11 = getelementptr inbounds nuw [17 x %struct.VVCFrame], ptr %7, i64 0, i64 %indvars.iv
  %12 = getelementptr inbounds nuw i8, ptr %11, i64 98
  %13 = load i8, ptr %12, align 2, !tbaa !23
  %.not55 = icmp eq i8 %13, 0
  br i1 %.not55, label %23, label %14

14:                                               ; preds = %10
  %15 = getelementptr inbounds nuw i8, ptr %11, i64 96
  %16 = load i16, ptr %15, align 8, !tbaa !70
  %17 = load i16, ptr %8, align 2, !tbaa !154
  %18 = icmp eq i16 %16, %17
  br i1 %18, label %19, label %23

19:                                               ; preds = %14
  %20 = getelementptr inbounds nuw i8, ptr %11, i64 56
  %21 = load i32, ptr %20, align 8, !tbaa !80
  %.not56 = icmp ne i32 %21, %6
  %22 = zext i1 %.not56 to i32
  %spec.select = add nsw i32 %.061, %22
  br label %23

23:                                               ; preds = %19, %14, %10
  %.1 = phi i32 [ %.061, %14 ], [ %.061, %10 ], [ %spec.select, %19 ]
  %indvars.iv.next = add nuw nsw i64 %indvars.iv, 1
  %exitcond.not = icmp eq i64 %indvars.iv.next, 17
  br i1 %exitcond.not, label %9, label %10, !llvm.loop !168

24:                                               ; preds = %9
  %25 = load ptr, ptr %4, align 8, !tbaa !158
  %26 = getelementptr inbounds nuw i8, ptr %25, i64 15457
  %27 = getelementptr inbounds nuw i8, ptr %25, i64 6
  %28 = load i8, ptr %27, align 2, !tbaa !159
  %29 = zext i8 %28 to i64
  %30 = getelementptr inbounds nuw [7 x i8], ptr %26, i64 0, i64 %29
  %31 = load i8, ptr %30, align 1, !tbaa !118
  %32 = zext i8 %31 to i32
  %.not50.not = icmp sgt i32 %.1, %32
  br i1 %.not50.not, label %.preheader59, label %.loopexit

.preheader59:                                     ; preds = %24, %46
  %indvars.iv66 = phi i64 [ %indvars.iv.next67, %46 ], [ 0, %24 ]
  %.04063 = phi i32 [ %.141, %46 ], [ 2147483647, %24 ]
  %33 = getelementptr inbounds nuw [17 x %struct.VVCFrame], ptr %7, i64 0, i64 %indvars.iv66
  %34 = getelementptr inbounds nuw i8, ptr %33, i64 98
  %35 = load i8, ptr %34, align 2, !tbaa !23
  %.not53 = icmp eq i8 %35, 0
  br i1 %.not53, label %46, label %36

36:                                               ; preds = %.preheader59
  %37 = getelementptr inbounds nuw i8, ptr %33, i64 96
  %38 = load i16, ptr %37, align 8, !tbaa !70
  %39 = load i16, ptr %8, align 2, !tbaa !154
  %40 = icmp eq i16 %38, %39
  br i1 %40, label %41, label %46

41:                                               ; preds = %36
  %42 = getelementptr inbounds nuw i8, ptr %33, i64 56
  %43 = load i32, ptr %42, align 8, !tbaa !80
  %.not54 = icmp ne i32 %43, %6
  %44 = icmp eq i8 %35, 1
  %or.cond = and i1 %44, %.not54
  %45 = tail call i32 @llvm.smin.i32(i32 %43, i32 %.04063)
  %spec.select58 = select i1 %or.cond, i32 %45, i32 %.04063
  br label %46

46:                                               ; preds = %41, %36, %.preheader59
  %.141 = phi i32 [ %.04063, %36 ], [ %.04063, %.preheader59 ], [ %spec.select58, %41 ]
  %indvars.iv.next67 = add nuw nsw i64 %indvars.iv66, 1
  %exitcond69.not = icmp eq i64 %indvars.iv.next67, 17
  br i1 %exitcond69.not, label %.preheader, label %.preheader59, !llvm.loop !169

.preheader:                                       ; preds = %46, %61
  %indvars.iv70 = phi i64 [ %indvars.iv.next71, %61 ], [ 0, %46 ]
  %47 = getelementptr inbounds nuw [17 x %struct.VVCFrame], ptr %7, i64 0, i64 %indvars.iv70
  %48 = getelementptr inbounds nuw i8, ptr %47, i64 98
  %49 = load i8, ptr %48, align 2, !tbaa !23
  %50 = and i8 %49, 1
  %.not51 = icmp eq i8 %50, 0
  br i1 %.not51, label %61, label %51

51:                                               ; preds = %.preheader
  %52 = getelementptr inbounds nuw i8, ptr %47, i64 96
  %53 = load i16, ptr %52, align 8, !tbaa !70
  %54 = load i16, ptr %8, align 2, !tbaa !154
  %55 = icmp eq i16 %53, %54
  br i1 %55, label %56, label %61

56:                                               ; preds = %51
  %57 = getelementptr inbounds nuw i8, ptr %47, i64 56
  %58 = load i32, ptr %57, align 8, !tbaa !80
  %.not52 = icmp sgt i32 %58, %.141
  br i1 %.not52, label %61, label %59

59:                                               ; preds = %56
  %60 = or i8 %49, 8
  store i8 %60, ptr %48, align 2, !tbaa !23
  br label %61

61:                                               ; preds = %59, %56, %51, %.preheader
  %indvars.iv.next71 = add nuw nsw i64 %indvars.iv70, 1
  %exitcond73.not = icmp eq i64 %indvars.iv.next71, 17
  br i1 %exitcond73.not, label %.loopexit, label %.preheader, !llvm.loop !170

.loopexit:                                        ; preds = %61, %24, %9
  ret void
}